target datalayout = "e-m:e-p270:32:32-p271:32:32-p272:64:64-i64:64-i128:128-f80:128-n8:16:32:64-S128"
target triple = "x86_64-pc-linux-gnu"

%struct.quic_port_st = type { ptr, %struct.anon, ptr, ptr, ptr, ptr, ptr, ptr, %struct.ossl_list_st_ch, %struct.ossl_list_st_incoming_ch, ptr, ptr, ptr, ptr, i8, i8, i16, ptr }
%struct.anon = type { ptr, ptr }
%struct.ossl_list_st_ch = type { ptr, ptr, i64 }
%struct.ossl_list_st_incoming_ch = type { ptr, ptr, i64 }
%struct.quic_engine_st = type { ptr, ptr, ptr, ptr, ptr, %struct.quic_reactor_st, %struct.ossl_list_st_port, i8 }
%struct.quic_reactor_st = type { %struct.bio_poll_descriptor_st, %struct.bio_poll_descriptor_st, %struct.OSSL_TIME, ptr, ptr, ptr, %struct.rio_notifier_st, ptr, i64, i8 }
%struct.bio_poll_descriptor_st = type { i32, %union.anon.6 }
%union.anon.6 = type { ptr }
%struct.OSSL_TIME = type { i64 }
%struct.rio_notifier_st = type { i32, i32 }
%struct.ossl_list_st_port = type { ptr, ptr, i64 }

; Function Attrs: nounwind uwtable
define internal i32 @encrypt_validation_token(ptr noundef %0, ptr noundef %1, i64 noundef %2, ptr noundef %3, ptr noundef %4) #0 {
  %6 = alloca ptr, align 8
  %7 = alloca ptr, align 8
  %8 = alloca i64, align 8
  %9 = alloca ptr, align 8
  %10 = alloca ptr, align 8
  %11 = alloca i32, align 4
  %12 = alloca i32, align 4
  %13 = alloca i32, align 4
  %14 = alloca i64, align 8
  %15 = alloca ptr, align 8
  %16 = alloca ptr, align 8
  %17 = alloca ptr, align 8
  store ptr %0, ptr %6, align 8, !tbaa !8
  store ptr %1, ptr %7, align 8, !tbaa !39
  store i64 %2, ptr %8, align 8, !tbaa !36
  store ptr %3, ptr %9, align 8, !tbaa !39
  store ptr %4, ptr %10, align 8, !tbaa !246
  call void @llvm.lifetime.start.p0(i64 4, ptr %11) #8
  call void @llvm.lifetime.start.p0(i64 4, ptr %12) #8
  call void @llvm.lifetime.start.p0(i64 4, ptr %13) #8
  store i32 0, ptr %13, align 4, !tbaa !41
  call void @llvm.lifetime.start.p0(i64 8, ptr %14) #8
  call void @llvm.lifetime.start.p0(i64 8, ptr %15) #8
  %18 = load ptr, ptr %9, align 8, !tbaa !39
  store ptr %18, ptr %15, align 8, !tbaa !39
  call void @llvm.lifetime.start.p0(i64 8, ptr %16) #8
  call void @llvm.lifetime.start.p0(i64 8, ptr %17) #8
  %19 = load ptr, ptr %6, align 8, !tbaa !8
  %20 = getelementptr inbounds nuw %struct.quic_port_st, ptr %19, i32 0, i32 17
  %21 = load ptr, ptr %20, align 8, !tbaa !59
  %22 = call i32 @EVP_CIPHER_CTX_get_tag_length(ptr noundef %21)
  %23 = sext i32 %22 to i64
  store i64 %23, ptr %14, align 8, !tbaa !36
  %24 = icmp eq i64 %23, 0
  br i1 %24, label %31, label %25

25:                                               ; preds = %5
  %26 = load ptr, ptr %6, align 8, !tbaa !8
  %27 = getelementptr inbounds nuw %struct.quic_port_st, ptr %26, i32 0, i32 17
  %28 = load ptr, ptr %27, align 8, !tbaa !59
  %29 = call i32 @EVP_CIPHER_CTX_get_iv_length(ptr noundef %28)
  store i32 %29, ptr %11, align 4, !tbaa !41
  %30 = icmp sle i32 %29, 0
  br i1 %30, label %31, label %32

31:                                               ; preds = %25, %5
  br label %99

32:                                               ; preds = %25
  %33 = load i32, ptr %11, align 4, !tbaa !41
  %34 = sext i32 %33 to i64
  %35 = load i64, ptr %8, align 8, !tbaa !36
  %36 = add i64 %34, %35
  %37 = load i64, ptr %14, align 8, !tbaa !36
  %38 = add i64 %36, %37
  %39 = add i64 %38, 16
  %40 = load ptr, ptr %10, align 8, !tbaa !246
  store i64 %39, ptr %40, align 8, !tbaa !36
  %41 = load ptr, ptr %9, align 8, !tbaa !39
  %42 = icmp eq ptr %41, null
  br i1 %42, label %43, label %44

43:                                               ; preds = %32
  store i32 1, ptr %13, align 4, !tbaa !41
  br label %99

44:                                               ; preds = %32
  %45 = load ptr, ptr %9, align 8, !tbaa !39
  %46 = load i32, ptr %11, align 4, !tbaa !41
  %47 = sext i32 %46 to i64
  %48 = getelementptr inbounds i8, ptr %45, i64 %47
  store ptr %48, ptr %16, align 8, !tbaa !39
  %49 = load ptr, ptr %16, align 8, !tbaa !39
  %50 = load i64, ptr %8, align 8, !tbaa !36
  %51 = getelementptr inbounds nuw i8, ptr %49, i64 %50
  store ptr %51, ptr %17, align 8, !tbaa !39
  %52 = load ptr, ptr %6, align 8, !tbaa !8
  %53 = getelementptr inbounds nuw %struct.quic_port_st, ptr %52, i32 0, i32 0
  %54 = load ptr, ptr %53, align 8, !tbaa !15
  %55 = getelementptr inbounds nuw %struct.quic_engine_st, ptr %54, i32 0, i32 0
  %56 = load ptr, ptr %55, align 8, !tbaa !44
  %57 = load ptr, ptr %9, align 8, !tbaa !39
  %58 = load i32, ptr %11, align 4, !tbaa !41
  %59 = sext i32 %58 to i64
  %60 = call i32 @RAND_bytes_ex(ptr noundef %56, ptr noundef %57, i64 noundef %59, i32 noundef 0)
  %61 = icmp ne i32 %60, 0
  br i1 %61, label %62, label %97

62:                                               ; preds = %44
  %63 = load ptr, ptr %6, align 8, !tbaa !8
  %64 = getelementptr inbounds nuw %struct.quic_port_st, ptr %63, i32 0, i32 17
  %65 = load ptr, ptr %64, align 8, !tbaa !59
  %66 = load ptr, ptr %15, align 8, !tbaa !39
  %67 = call i32 @EVP_EncryptInit_ex(ptr noundef %65, ptr noundef null, ptr noundef null, ptr noundef null, ptr noundef %66)
  %68 = icmp ne i32 %67, 0
  br i1 %68, label %69, label %97

69:                                               ; preds = %62
  %70 = load ptr, ptr %6, align 8, !tbaa !8
  %71 = getelementptr inbounds nuw %struct.quic_port_st, ptr %70, i32 0, i32 17
  %72 = load ptr, ptr %71, align 8, !tbaa !59
  %73 = load ptr, ptr %16, align 8, !tbaa !39
  %74 = load ptr, ptr %7, align 8, !tbaa !39
  %75 = load i64, ptr %8, align 8, !tbaa !36
  %76 = trunc i64 %75 to i32
  %77 = call i32 @EVP_EncryptUpdate(ptr noundef %72, ptr noundef %73, ptr noundef %12, ptr noundef %74, i32 noundef %76)
  %78 = icmp ne i32 %77, 0
  br i1 %78, label %79, label %97

79:                                               ; preds = %69
  %80 = load ptr, ptr %6, align 8, !tbaa !8
  %81 = getelementptr inbounds nuw %struct.quic_port_st, ptr %80, i32 0, i32 17
  %82 = load ptr, ptr %81, align 8, !tbaa !59
  %83 = load ptr, ptr %16, align 8, !tbaa !39
  %84 = load i64, ptr %8, align 8, !tbaa !36
  %85 = getelementptr inbounds nuw i8, ptr %83, i64 %84
  %86 = call i32 @EVP_EncryptFinal_ex(ptr noundef %82, ptr noundef %85, ptr noundef %12)
  %87 = icmp ne i32 %86, 0
  br i1 %87, label %88, label %97

88:                                               ; preds = %79
  %89 = load ptr, ptr %6, align 8, !tbaa !8
  %90 = getelementptr inbounds nuw %struct.quic_port_st, ptr %89, i32 0, i32 17
  %91 = load ptr, ptr %90, align 8, !tbaa !59
  %92 = load i64, ptr %14, align 8, !tbaa !36
  %93 = trunc i64 %92 to i32
  %94 = load ptr, ptr %17, align 8, !tbaa !39
  %95 = call i32 @EVP_CIPHER_CTX_ctrl(ptr noundef %91, i32 noundef 16, i32 noundef %93, ptr noundef %94)
  %96 = icmp ne i32 %95, 0
  br i1 %96, label %98, label %97

97:                                               ; preds = %88, %79, %69, %62, %44
  br label %99

98:                                               ; preds = %88
  store i32 1, ptr %13, align 4, !tbaa !41
  br label %99

99:                                               ; preds = %98, %97, %43, %31
  %100 = load i32, ptr %13, align 4, !tbaa !41
  call void @llvm.lifetime.end.p0(i64 8, ptr %17) #8
  call void @llvm.lifetime.end.p0(i64 8, ptr %16) #8
  call void @llvm.lifetime.end.p0(i64 8, ptr %15) #8
  call void @llvm.lifetime.end.p0(i64 8, ptr %14) #8
  call void @llvm.lifetime.end.p0(i64 4, ptr %13) #8
  call void @llvm.lifetime.end.p0(i64 4, ptr %12) #8
  call void @llvm.lifetime.end.p0(i64 4, ptr %11) #8
  ret i32 %100
}