; Function Attrs: nounwind uwtable
define internal fastcc range(i32 0, 2) i32 @encrypt_validation_token(ptr noundef readonly captures(none) %0, ptr noundef nonnull %1, i64 noundef %2, ptr noundef %3, ptr noundef nonnull writeonly captures(none) %4) unnamed_addr #0 {
  %6 = alloca i32, align 4
  call void @llvm.lifetime.start.p0(i64 4, ptr nonnull %6) #11
  %7 = getelementptr inbounds nuw i8, ptr %0, i64 160
  %8 = load ptr, ptr %7, align 8, !tbaa !56
  %9 = tail call i32 @EVP_CIPHER_CTX_get_tag_length(ptr noundef %8) #11
  %10 = sext i32 %9 to i64
  %11 = icmp eq i32 %9, 0
  br i1 %11, label %41, label %12

12:                                               ; preds = %5
  %13 = load ptr, ptr %7, align 8, !tbaa !56
  %14 = tail call i32 @EVP_CIPHER_CTX_get_iv_length(ptr noundef %13) #11
  %15 = icmp slt i32 %14, 1
  br i1 %15, label %41, label %16

16:                                               ; preds = %12
  %17 = zext nneg i32 %14 to i64
  %18 = add i64 %2, 16
  %19 = add i64 %18, %10
  %20 = add i64 %19, %17
  store i64 %20, ptr %4, align 8, !tbaa !195
  %21 = icmp eq ptr %3, null
  br i1 %21, label %41, label %22

22:                                               ; preds = %16
  %23 = getelementptr inbounds nuw i8, ptr %3, i64 %17
  %24 = getelementptr inbounds nuw i8, ptr %23, i64 %2
  %25 = load ptr, ptr %0, align 8, !tbaa !11
  %26 = load ptr, ptr %25, align 8, !tbaa !35
  %27 = tail call i32 @RAND_bytes_ex(ptr noundef %26, ptr noundef nonnull %3, i64 noundef %17, i32 noundef 0) #11
  %.not = icmp eq i32 %27, 0
  br i1 %.not, label %41, label %28

28:                                               ; preds = %22
  %29 = load ptr, ptr %7, align 8, !tbaa !56
  %30 = tail call i32 @EVP_EncryptInit_ex(ptr noundef %29, ptr noundef null, ptr noundef null, ptr noundef null, ptr noundef nonnull %3) #11
  %.not30 = icmp eq i32 %30, 0
  br i1 %.not30, label %41, label %31

31:                                               ; preds = %28
  %32 = load ptr, ptr %7, align 8, !tbaa !56
  %33 = trunc i64 %2 to i32
  %34 = call i32 @EVP_EncryptUpdate(ptr noundef %32, ptr noundef nonnull %23, ptr noundef nonnull %6, ptr noundef nonnull %1, i32 noundef %33) #11
  %.not31 = icmp eq i32 %34, 0
  br i1 %.not31, label %41, label %35

35:                                               ; preds = %31
  %36 = load ptr, ptr %7, align 8, !tbaa !56
  %37 = call i32 @EVP_EncryptFinal_ex(ptr noundef %36, ptr noundef nonnull %24, ptr noundef nonnull %6) #11
  %.not32 = icmp eq i32 %37, 0
  br i1 %.not32, label %41, label %38

38:                                               ; preds = %35
  %39 = load ptr, ptr %7, align 8, !tbaa !56
  %40 = call i32 @EVP_CIPHER_CTX_ctrl(ptr noundef %39, i32 noundef 16, i32 noundef %9, ptr noundef nonnull %24) #11
  %.not33 = icmp ne i32 %40, 0
  %spec.select = zext i1 %.not33 to i32
  br label %41

41:                                               ; preds = %38, %16, %22, %28, %31, %35, %5, %12
  %.0 = phi i32 [ 0, %5 ], [ 0, %12 ], [ 0, %35 ], [ 0, %31 ], [ 0, %28 ], [ 0, %22 ], [ 1, %16 ], [ %spec.select, %38 ]
  call void @llvm.lifetime.end.p0(i64 4, ptr nonnull %6) #11
  ret i32 %.0
}